; Function Attrs: mustprogress nofree norecurse nosync nounwind willreturn memory(none) uwtable
define zeroext range(i8 0, 2) i8 @l_Lake_instDecidableEqLogLevel(i8 noundef zeroext %0, i8 noundef zeroext %1) local_unnamed_addr #0 {
  switch i8 %0, label %5 [
    i8 0, label %l_Lake_LogLevel_toCtorIdx.exit
    i8 1, label %3
    i8 2, label %4
  ]

3:                                                ; preds = %2
  br label %l_Lake_LogLevel_toCtorIdx.exit

4:                                                ; preds = %2
  br label %l_Lake_LogLevel_toCtorIdx.exit

5:                                                ; preds = %2
  br label %l_Lake_LogLevel_toCtorIdx.exit

l_Lake_LogLevel_toCtorIdx.exit:                   ; preds = %2, %3, %4, %5
  %.0.i9 = phi ptr [ inttoptr (i64 7 to ptr), %5 ], [ inttoptr (i64 5 to ptr), %4 ], [ inttoptr (i64 3 to ptr), %3 ], [ inttoptr (i64 1 to ptr), %2 ]
  switch i8 %1, label %8 [
    i8 0, label %lean_dec.exit
    i8 1, label %6
    i8 2, label %7
  ]

6:                                                ; preds = %l_Lake_LogLevel_toCtorIdx.exit
  br label %lean_dec.exit

7:                                                ; preds = %l_Lake_LogLevel_toCtorIdx.exit
  br label %lean_dec.exit

8:                                                ; preds = %l_Lake_LogLevel_toCtorIdx.exit
  br label %lean_dec.exit

lean_dec.exit:                                    ; preds = %8, %7, %6, %l_Lake_LogLevel_toCtorIdx.exit
  %.0.i10 = phi ptr [ inttoptr (i64 7 to ptr), %8 ], [ inttoptr (i64 5 to ptr), %7 ], [ inttoptr (i64 3 to ptr), %6 ], [ inttoptr (i64 1 to ptr), %l_Lake_LogLevel_toCtorIdx.exit ]
  %9 = icmp eq ptr %.0.i9, %.0.i10
  %10 = zext i1 %9 to i8
  ret i8 %10
}